; Function Attrs: mustprogress nounwind uwtable
define void @_ZN3net22CryptoHandshakeMessage5ClearEv(ptr noundef nonnull align 8 dereferenceable(72) initializes((0, 4)) %0) local_unnamed_addr #3 align 2 personality ptr @__gxx_personality_v0 {
  store i32 0, ptr %0, align 8, !tbaa !3
  %2 = getelementptr inbounds nuw i8, ptr %0, i64 8
  %3 = getelementptr inbounds nuw i8, ptr %0, i64 24
  %4 = load ptr, ptr %3, align 8, !tbaa !27
  invoke void @_ZNSt8_Rb_treeIjSt4pairIKjNSt7__cxx1112basic_stringIcSt11char_traitsIcESaIcEEEESt10_Select1stIS8_ESt4lessIjESaIS8_EE8_M_eraseEPSt13_Rb_tree_nodeIS8_E(ptr noundef nonnull align 8 dereferenceable(48) %2, ptr noundef %4)
          to label %_ZNSt3mapIjNSt7__cxx1112basic_stringIcSt11char_traitsIcESaIcEEESt4lessIjESaISt4pairIKjS5_EEE5clearEv.exit unwind label %5

5:                                                ; preds = %1
  %6 = landingpad { ptr, i32 }
          catch ptr null
  %7 = extractvalue { ptr, i32 } %6, 0
  tail call void @__clang_call_terminate(ptr %7) #23
  unreachable

_ZNSt3mapIjNSt7__cxx1112basic_stringIcSt11char_traitsIcESaIcEEESt4lessIjESaISt4pairIKjS5_EEE5clearEv.exit: ; preds = %1
  %8 = getelementptr inbounds nuw i8, ptr %0, i64 16
  store ptr null, ptr %3, align 8, !tbaa !27
  %9 = getelementptr inbounds nuw i8, ptr %0, i64 32
  store ptr %8, ptr %9, align 8, !tbaa !28
  %10 = getelementptr inbounds nuw i8, ptr %0, i64 40
  store ptr %8, ptr %10, align 8, !tbaa !29
  %11 = getelementptr inbounds nuw i8, ptr %0, i64 48
  %12 = getelementptr inbounds nuw i8, ptr %0, i64 64
  tail call void @llvm.memset.p0.i64(ptr noundef nonnull align 8 dereferenceable(16) %11, i8 0, i64 16, i1 false)
  %13 = load ptr, ptr %12, align 8, !tbaa !42
  store ptr null, ptr %12, align 8, !tbaa !42
  %.not.i.i = icmp eq ptr %13, null
  br i1 %.not.i.i, label %_ZNSt10unique_ptrIN3net8QuicDataESt14default_deleteIS1_EE5resetEPS1_.exit, label %_ZNKSt14default_deleteIN3net8QuicDataEEclEPS1_.exit.i.i

_ZNKSt14default_deleteIN3net8QuicDataEEclEPS1_.exit.i.i: ; preds = %_ZNSt3mapIjNSt7__cxx1112basic_stringIcSt11char_traitsIcESaIcEEESt4lessIjESaISt4pairIKjS5_EEE5clearEv.exit
  %14 = load ptr, ptr %13, align 8, !tbaa !43
  %15 = getelementptr inbounds nuw i8, ptr %14, i64 8
  %16 = load ptr, ptr %15, align 8
  tail call void %16(ptr noundef nonnull align 8 dereferenceable(25) %13) #22
  br label %_ZNSt10unique_ptrIN3net8QuicDataESt14default_deleteIS1_EE5resetEPS1_.exit

_ZNSt10unique_ptrIN3net8QuicDataESt14default_deleteIS1_EE5resetEPS1_.exit: ; preds = %_ZNSt3mapIjNSt7__cxx1112basic_stringIcSt11char_traitsIcESaIcEEESt4lessIjESaISt4pairIKjS5_EEE5clearEv.exit, %_ZNKSt14default_deleteIN3net8QuicDataEEclEPS1_.exit.i.i
  ret void
}